; ModuleID = 'source-C-CXX/22/257.c'
source_filename = "source-C-CXX/22/257.c"
target datalayout = "e-m:e-p270:32:32-p271:32:32-p272:64:64-i64:64-f80:128-n8:16:32:64-S128"
target triple = "x86_64-pc-linux-gnu"

; Function Attrs: nounwind sspstrong uwtable
define dso_local i32 @main() local_unnamed_addr #0 {
  %1 = alloca [101 x i8], align 16
  %2 = getelementptr inbounds [101 x i8], [101 x i8]* %1, i64 0, i64 0
  call void @llvm.lifetime.start.p0i8(i64 101, i8* nonnull %2) #6
  %3 = call i32 (i8*, ...) bitcast (i32 (...)* @gets to i32 (i8*, ...)*)(i8* nonnull %2) #6
  br label %4

4:                                                ; preds = %30, %0
  %5 = phi i64 [ 99, %0 ], [ %31, %30 ]
  %6 = phi i64 [ 100, %0 ], [ %32, %30 ]
  %7 = call i64 @strlen(i8* noundef nonnull %2) #7
  %8 = getelementptr inbounds [101 x i8], [101 x i8]* %1, i64 0, i64 %5
  %9 = load i8, i8* %8, align 1, !tbaa !5
  %10 = icmp eq i8 %9, 32
  br i1 %10, label %11, label %28

11:                                               ; preds = %4
  %12 = add nuw nsw i64 %5, 1
  %13 = shl i64 %7, 32
  %14 = ashr exact i64 %13, 32
  %15 = icmp slt i64 %12, %14
  br i1 %15, label %16, label %26

16:                                               ; preds = %11
  %17 = and i64 %7, 4294967295
  br label %18

18:                                               ; preds = %16, %18
  %19 = phi i64 [ %6, %16 ], [ %24, %18 ]
  %20 = getelementptr inbounds [101 x i8], [101 x i8]* %1, i64 0, i64 %19
  %21 = load i8, i8* %20, align 1, !tbaa !5
  %22 = sext i8 %21 to i32
  %23 = call i32 @putchar(i32 %22)
  %24 = add nuw nsw i64 %19, 1
  %25 = icmp eq i64 %24, %17
  br i1 %25, label %26, label %18, !llvm.loop !8

26:                                               ; preds = %18, %11
  %27 = call i32 @putchar(i32 32)
  store i8 0, i8* %8, align 1, !tbaa !5
  br label %28

28:                                               ; preds = %26, %4
  %29 = icmp eq i64 %5, 0
  br i1 %29, label %33, label %30

30:                                               ; preds = %28
  %31 = add nsw i64 %5, -1
  %32 = add nsw i64 %6, -1
  br label %4

33:                                               ; preds = %28
  %34 = call i32 @puts(i8* nonnull %2)
  call void @llvm.lifetime.end.p0i8(i64 101, i8* nonnull %2) #6
  ret i32 0
}

; Function Attrs: argmemonly mustprogress nofree nosync nounwind willreturn
declare void @llvm.lifetime.start.p0i8(i64 immarg, i8* nocapture) #1

declare i32 @gets(...) local_unnamed_addr #2

; Function Attrs: argmemonly mustprogress nofree nounwind readonly willreturn
declare i64 @strlen(i8* nocapture) local_unnamed_addr #3

; Function Attrs: nofree nounwind
declare noundef i32 @puts(i8* nocapture noundef readonly) local_unnamed_addr #4

; Function Attrs: argmemonly mustprogress nofree nosync nounwind willreturn
declare void @llvm.lifetime.end.p0i8(i64 immarg, i8* nocapture) #1

; Function Attrs: nofree nounwind
declare noundef i32 @putchar(i32 noundef) local_unnamed_addr #5


!llvm.module.flags = !{!0, !1, !2, !3}
!llvm.ident = !{!4}

!0 = !{i32 1, !"wchar_size", i32 4}
!1 = !{i32 7, !"PIC Level", i32 2}
!2 = !{i32 7, !"PIE Level", i32 2}
!3 = !{i32 7, !"uwtable", i32 1}
!4 = !{!"clang version 13.0.0"}
!5 = !{!6, !6, i64 0}
!6 = !{!"omnipotent char", !7, i64 0}
!7 = !{!"Simple C/C++ TBAA"}
!8 = distinct !{!8, !9}
!9 = !{!"llvm.loop.mustprogress"}
